target datalayout = "e-m:e-p270:32:32-p271:32:32-p272:64:64-i64:64-i128:128-f80:128-n8:16:32:64-S128"
target triple = "x86_64-pc-linux-gnu"

@l_Lean_Lsp_Trace_hasToJson___closed__1 = internal global ptr null, align 8
@l_Lean_Lsp_Trace_hasToJson___closed__2 = internal global ptr null, align 8
@l_Lean_Lsp_Trace_hasToJson___closed__3 = internal global ptr null, align 8

; Function Attrs: nounwind uwtable
define ptr @l_Lean_Lsp_Trace_hasToJson(i8 noundef zeroext %0) #1 {
  %2 = alloca ptr, align 8
  %3 = alloca i8, align 1
  %4 = alloca ptr, align 8
  %5 = alloca ptr, align 8
  %6 = alloca ptr, align 8
  store i8 %0, ptr %3, align 1, !tbaa !12
  br label %7

7:                                                ; preds = %1
  %8 = load i8, ptr %3, align 1, !tbaa !12
  %9 = zext i8 %8 to i32
  switch i32 %9, label %16 [
    i32 0, label %10
    i32 1, label %13
  ]

10:                                               ; preds = %7
  call void @llvm.lifetime.start.p0(i64 8, ptr %4) #7
  %11 = load ptr, ptr @l_Lean_Lsp_Trace_hasToJson___closed__1, align 8, !tbaa !4
  store ptr %11, ptr %4, align 8, !tbaa !4
  %12 = load ptr, ptr %4, align 8, !tbaa !4
  store ptr %12, ptr %2, align 8
  call void @llvm.lifetime.end.p0(i64 8, ptr %4) #7
  br label %19

13:                                               ; preds = %7
  call void @llvm.lifetime.start.p0(i64 8, ptr %5) #7
  %14 = load ptr, ptr @l_Lean_Lsp_Trace_hasToJson___closed__2, align 8, !tbaa !4
  store ptr %14, ptr %5, align 8, !tbaa !4
  %15 = load ptr, ptr %5, align 8, !tbaa !4
  store ptr %15, ptr %2, align 8
  call void @llvm.lifetime.end.p0(i64 8, ptr %5) #7
  br label %19

16:                                               ; preds = %7
  call void @llvm.lifetime.start.p0(i64 8, ptr %6) #7
  %17 = load ptr, ptr @l_Lean_Lsp_Trace_hasToJson___closed__3, align 8, !tbaa !4
  store ptr %17, ptr %6, align 8, !tbaa !4
  %18 = load ptr, ptr %6, align 8, !tbaa !4
  store ptr %18, ptr %2, align 8
  call void @llvm.lifetime.end.p0(i64 8, ptr %6) #7
  br label %19

19:                                               ; preds = %16, %13, %10
  %20 = load ptr, ptr %2, align 8
  ret ptr %20
}